target datalayout = "e-m:e-p270:32:32-p271:32:32-p272:64:64-i64:64-i128:128-f80:128-n8:16:32:64-S128"
target triple = "x86_64-pc-linux-gnu"

@proto_register_macsec.ett = internal global [2 x ptr] [ptr @ett_macsec, ptr @ett_macsec_tci], align 16
@.str.42 = private unnamed_addr constant [21 x i8] c"802.1AE Security tag\00", align 1
@.str.43 = private unnamed_addr constant [7 x i8] c"MACsec\00", align 1
@.str.44 = private unnamed_addr constant [7 x i8] c"macsec\00", align 1
@proto_macsec = internal global i32 0, align 4
@macsec_handle = internal global ptr null, align 8
@.str.45 = private unnamed_addr constant [4 x i8] c"psk\00", align 1
@.str.46 = private unnamed_addr constant [22 x i8] c"MACsec Pre-Shared Key\00", align 1
@.str.47 = private unnamed_addr constant [55 x i8] c"Pre-Shared AES-GCM-128 Key as a HEX string (16 bytes).\00", align 1
@psk = internal global ptr null, align 8

; Function Attrs: null_pointer_is_valid sspstrong uwtable
define hidden void @proto_register_macsec() #0 {
  %1 = alloca ptr, align 8
  call void @llvm.lifetime.start.p0(i64 8, ptr %1) #12
  %2 = call i32 @proto_register_protocol(ptr noundef @.str.42, ptr noundef @.str.43, ptr noundef @.str.44)
  store i32 %2, ptr @proto_macsec, align 4
  %3 = load i32, ptr @proto_macsec, align 4
  call void @proto_register_field_array(i32 noundef %3, ptr noundef @proto_register_macsec.hf, i32 noundef 17)
  call void @proto_register_subtree_array(ptr noundef @proto_register_macsec.ett, i32 noundef 2)
  %4 = load i32, ptr @proto_macsec, align 4
  %5 = call ptr @register_dissector(ptr noundef @.str.44, ptr noundef @dissect_macsec, i32 noundef %4)
  store ptr %5, ptr @macsec_handle, align 8
  %6 = load i32, ptr @proto_macsec, align 4
  %7 = call ptr @prefs_register_protocol(i32 noundef %6, ptr noundef null)
  store ptr %7, ptr %1, align 8
  %8 = load ptr, ptr %1, align 8
  call void @prefs_register_string_preference(ptr noundef %8, ptr noundef @.str.45, ptr noundef @.str.46, ptr noundef @.str.47, ptr noundef @psk)
  call void @llvm.lifetime.end.p0(i64 8, ptr %1) #12
  ret void
}