; Function Attrs: null_pointer_is_valid sspstrong uwtable
define hidden void @proto_register_macsec() local_unnamed_addr #0 {
  %1 = tail call i32 @proto_register_protocol(ptr noundef nonnull @.str.42, ptr noundef nonnull @.str.43, ptr noundef nonnull @.str.44)
  store i32 %1, ptr @proto_macsec, align 4
  tail call void @proto_register_field_array(i32 noundef %1, ptr noundef nonnull @proto_register_macsec.hf, i32 noundef 17)
  tail call void @proto_register_subtree_array(ptr noundef nonnull @proto_register_macsec.ett, i32 noundef 2)
  %2 = load i32, ptr @proto_macsec, align 4
  %3 = tail call ptr @register_dissector(ptr noundef nonnull @.str.44, ptr noundef nonnull @dissect_macsec, i32 noundef %2)
  store ptr %3, ptr @macsec_handle, align 8
  %4 = load i32, ptr @proto_macsec, align 4
  %5 = tail call ptr @prefs_register_protocol(i32 noundef %4, ptr noundef null)
  tail call void @prefs_register_string_preference(ptr noundef %5, ptr noundef nonnull @.str.45, ptr noundef nonnull @.str.46, ptr noundef nonnull @.str.47, ptr noundef nonnull @psk)
  ret void
}